; Function Attrs: mustprogress nofree norecurse nosync nounwind willreturn memory(argmem: read) uwtable
define hidden noundef zeroext i1 @_ZNK7datalog4rule12has_negationEv(ptr nocapture noundef nonnull readonly align 8 dereferenceable(80) %this) local_unnamed_addr #9 align 2 {
entry:
  %m_uninterp_cnt.i = getelementptr inbounds i8, ptr %this, i64 68
  %0 = load i32, ptr %m_uninterp_cnt.i, align 4
  %m_tail.i = getelementptr inbounds i8, ptr %this, i64 80
  %cmp3.not = icmp eq i32 %0, 0
  br i1 %cmp3.not, label %return, label %for.body.preheader

for.body.preheader:                               ; preds = %entry
  %1 = zext i32 %0 to i64
  %2 = load ptr, ptr %m_tail.i, align 8
  %3 = ptrtoint ptr %2 to i64
  %and.i7 = and i64 %3, 7
  %cmp.i8 = icmp eq i64 %and.i7, 1
  br i1 %cmp.i8, label %return, label %for.cond

for.cond:                                         ; preds = %for.body.preheader, %for.body
  %indvars.iv9 = phi i64 [ %indvars.iv.next, %for.body ], [ 0, %for.body.preheader ]
  %indvars.iv.next = add nuw nsw i64 %indvars.iv9, 1
  %exitcond.not = icmp eq i64 %indvars.iv.next, %1
  br i1 %exitcond.not, label %return.loopexit, label %for.body, !llvm.loop !116

for.body:                                         ; preds = %for.cond
  %arrayidx.i = getelementptr inbounds [0 x ptr], ptr %m_tail.i, i64 0, i64 %indvars.iv.next
  %4 = load ptr, ptr %arrayidx.i, align 8
  %5 = ptrtoint ptr %4 to i64
  %and.i = and i64 %5, 7
  %cmp.i = icmp eq i64 %and.i, 1
  br i1 %cmp.i, label %return.loopexit, label %for.cond, !llvm.loop !116

return.loopexit:                                  ; preds = %for.body, %for.cond
  %cmp.le = icmp ult i64 %indvars.iv.next, %1
  br label %return

return:                                           ; preds = %return.loopexit, %for.body.preheader, %entry
  %cmp.lcssa = phi i1 [ false, %entry ], [ true, %for.body.preheader ], [ %cmp.le, %return.loopexit ]
  ret i1 %cmp.lcssa
}